target datalayout = "e-m:e-p270:32:32-p271:32:32-p272:64:64-i64:64-i128:128-f80:128-n8:16:32:64-S128"
target triple = "x86_64-pc-linux-gnu"

%struct.Obj = type { ptr, ptr, ptr, ptr, i8, i32, i32, i8, i8, i8, i8, i8, ptr, ptr, i8, ptr, ptr, ptr, ptr, ptr, i32, i8, i8, %struct.StringArray }
%struct.StringArray = type { ptr, i32, i32 }
%struct.Type = type { i32, i32, i32, i8, i8, ptr, ptr, ptr, ptr, i32, ptr, ptr, ptr, i8, i8, ptr, ptr, i8, ptr }

@current_fn = internal global ptr null, align 8
@.str.277 = private unnamed_addr constant [23 x i8] c"  mov %d(%%rbp), %%rdi\00", align 1
@.str.278 = private unnamed_addr constant [22 x i8] c"  mov %d(%%rax), %%dl\00", align 1
@.str.279 = private unnamed_addr constant [22 x i8] c"  mov %%dl, %d(%%rdi)\00", align 1

; Function Attrs: nounwind uwtable
define internal void @copy_struct_mem() #0 {
  %1 = alloca ptr, align 8
  %2 = alloca ptr, align 8
  %3 = alloca i32, align 4
  call void @llvm.lifetime.start.p0(i64 8, ptr %1) #8
  %4 = load ptr, ptr @current_fn, align 8, !tbaa !11
  %5 = getelementptr inbounds nuw %struct.Obj, ptr %4, i32 0, i32 2
  %6 = load ptr, ptr %5, align 8, !tbaa !36
  %7 = getelementptr inbounds nuw %struct.Type, ptr %6, i32 0, i32 15
  %8 = load ptr, ptr %7, align 8, !tbaa !132
  store ptr %8, ptr %1, align 8, !tbaa !37
  call void @llvm.lifetime.start.p0(i64 8, ptr %2) #8
  %9 = load ptr, ptr @current_fn, align 8, !tbaa !11
  %10 = getelementptr inbounds nuw %struct.Obj, ptr %9, i32 0, i32 15
  %11 = load ptr, ptr %10, align 8, !tbaa !35
  store ptr %11, ptr %2, align 8, !tbaa !11
  %12 = load ptr, ptr %2, align 8, !tbaa !11
  %13 = getelementptr inbounds nuw %struct.Obj, ptr %12, i32 0, i32 6
  %14 = load i32, ptr %13, align 8, !tbaa !43
  call void (ptr, ...) @println(ptr noundef @.str.277, i32 noundef %14)
  call void @llvm.lifetime.start.p0(i64 4, ptr %3) #8
  store i32 0, ptr %3, align 4, !tbaa !7
  br label %15

15:                                               ; preds = %25, %0
  %16 = load i32, ptr %3, align 4, !tbaa !7
  %17 = load ptr, ptr %1, align 8, !tbaa !37
  %18 = getelementptr inbounds nuw %struct.Type, ptr %17, i32 0, i32 1
  %19 = load i32, ptr %18, align 4, !tbaa !41
  %20 = icmp slt i32 %16, %19
  br i1 %20, label %22, label %21

21:                                               ; preds = %15
  call void @llvm.lifetime.end.p0(i64 4, ptr %3) #8
  br label %28

22:                                               ; preds = %15
  %23 = load i32, ptr %3, align 4, !tbaa !7
  call void (ptr, ...) @println(ptr noundef @.str.278, i32 noundef %23)
  %24 = load i32, ptr %3, align 4, !tbaa !7
  call void (ptr, ...) @println(ptr noundef @.str.279, i32 noundef %24)
  br label %25

25:                                               ; preds = %22
  %26 = load i32, ptr %3, align 4, !tbaa !7
  %27 = add nsw i32 %26, 1
  store i32 %27, ptr %3, align 4, !tbaa !7
  br label %15, !llvm.loop !135

28:                                               ; preds = %21
  call void @llvm.lifetime.end.p0(i64 8, ptr %2) #8
  call void @llvm.lifetime.end.p0(i64 8, ptr %1) #8
  ret void
}