; Function Attrs: nofree nounwind uwtable
define internal fastcc void @copy_struct_mem() unnamed_addr #4 {
  %1 = load ptr, ptr @current_fn, align 8, !tbaa !27
  %2 = getelementptr inbounds nuw i8, ptr %1, i64 16
  %3 = load ptr, ptr %2, align 8, !tbaa !28
  %4 = getelementptr inbounds nuw i8, ptr %3, i64 88
  %5 = load ptr, ptr %4, align 8, !tbaa !125
  %6 = getelementptr inbounds nuw i8, ptr %1, i64 80
  %7 = load ptr, ptr %6, align 8, !tbaa !128
  %8 = getelementptr inbounds nuw i8, ptr %7, i64 40
  %9 = load i32, ptr %8, align 8, !tbaa !33
  tail call void (ptr, ...) @println(ptr noundef nonnull @.str.277, i32 noundef %9)
  %10 = getelementptr inbounds nuw i8, ptr %5, i64 4
  %11 = load i32, ptr %10, align 4, !tbaa !32
  %12 = icmp sgt i32 %11, 0
  br i1 %12, label %.lr.ph, label %._crit_edge

._crit_edge:                                      ; preds = %.lr.ph, %0
  ret void

.lr.ph:                                           ; preds = %0, %.lr.ph
  %.05 = phi i32 [ %13, %.lr.ph ], [ 0, %0 ]
  tail call void (ptr, ...) @println(ptr noundef nonnull @.str.278, i32 noundef %.05)
  tail call void (ptr, ...) @println(ptr noundef nonnull @.str.279, i32 noundef %.05)
  %13 = add nuw nsw i32 %.05, 1
  %14 = load i32, ptr %10, align 4, !tbaa !32
  %15 = icmp slt i32 %13, %14
  br i1 %15, label %.lr.ph, label %._crit_edge, !llvm.loop !129
}